; Function Attrs: mustprogress uwtable
define void @_ZN6casadi13IdasInterface5ehfunEiPKcS2_PcPv(i32 %0, ptr readnone captures(none) %1, ptr readnone captures(none) %2, ptr noundef %3, ptr readnone captures(none) %4) #4 align 2 personality ptr @__gxx_personality_v0 {
  %6 = invoke noundef nonnull align 8 dereferenceable(8) ptr @_ZN6casadi4uerrEv()
          to label %7 unwind label %38

7:                                                ; preds = %5
  %.not.i = icmp eq ptr %3, null
  br i1 %.not.i, label %8, label %16

8:                                                ; preds = %7
  %9 = load ptr, ptr %6, align 8, !tbaa !32
  %10 = getelementptr i8, ptr %9, i64 -24
  %11 = load i64, ptr %10, align 8
  %12 = getelementptr inbounds i8, ptr %6, i64 %11
  %13 = getelementptr inbounds nuw i8, ptr %12, i64 32
  %14 = load i32, ptr %13, align 8, !tbaa !230
  %15 = or i32 %14, 1
  invoke void @_ZNSt9basic_iosIcSt11char_traitsIcEE5clearESt12_Ios_Iostate(ptr noundef nonnull align 8 dereferenceable(264) %12, i32 noundef %15)
          to label %_ZStlsISt11char_traitsIcEERSt13basic_ostreamIcT_ES5_PKc.exit unwind label %38

16:                                               ; preds = %7
  %17 = tail call noundef i64 @strlen(ptr noundef nonnull dereferenceable(1) %3) #28
  %18 = invoke noundef nonnull align 8 dereferenceable(8) ptr @_ZSt16__ostream_insertIcSt11char_traitsIcEERSt13basic_ostreamIT_T0_ES6_PKS3_l(ptr noundef nonnull align 8 dereferenceable(8) %6, ptr noundef nonnull %3, i64 noundef %17)
          to label %_ZStlsISt11char_traitsIcEERSt13basic_ostreamIcT_ES5_PKc.exit unwind label %38

_ZStlsISt11char_traitsIcEERSt13basic_ostreamIcT_ES5_PKc.exit: ; preds = %8, %16
  %19 = load ptr, ptr %6, align 8, !tbaa !32
  %20 = getelementptr i8, ptr %19, i64 -24
  %21 = load i64, ptr %20, align 8
  %22 = getelementptr inbounds i8, ptr %6, i64 %21
  %23 = getelementptr inbounds nuw i8, ptr %22, i64 240
  %24 = load ptr, ptr %23, align 8, !tbaa !174
  %.not.i.i.i = icmp eq ptr %24, null
  br i1 %.not.i.i.i, label %25, label %_ZSt13__check_facetISt5ctypeIcEERKT_PS3_.exit.i.i

25:                                               ; preds = %_ZStlsISt11char_traitsIcEERSt13basic_ostreamIcT_ES5_PKc.exit
  invoke void @_ZSt16__throw_bad_castv() #27
          to label %.noexc13 unwind label %38

.noexc13:                                         ; preds = %25
  unreachable

_ZSt13__check_facetISt5ctypeIcEERKT_PS3_.exit.i.i: ; preds = %_ZStlsISt11char_traitsIcEERSt13basic_ostreamIcT_ES5_PKc.exit
  %26 = getelementptr inbounds nuw i8, ptr %24, i64 56
  %27 = load i8, ptr %26, align 8, !tbaa !175
  %.not.i1.i.i = icmp eq i8 %27, 0
  br i1 %.not.i1.i.i, label %31, label %28

28:                                               ; preds = %_ZSt13__check_facetISt5ctypeIcEERKT_PS3_.exit.i.i
  %29 = getelementptr inbounds nuw i8, ptr %24, i64 67
  %30 = load i8, ptr %29, align 1, !tbaa !13
  br label %_ZNKSt9basic_iosIcSt11char_traitsIcEE5widenEc.exit.i

31:                                               ; preds = %_ZSt13__check_facetISt5ctypeIcEERKT_PS3_.exit.i.i
  invoke void @_ZNKSt5ctypeIcE13_M_widen_initEv(ptr noundef nonnull align 8 dereferenceable(570) %24)
          to label %.noexc14 unwind label %38

.noexc14:                                         ; preds = %31
  %32 = load ptr, ptr %24, align 8, !tbaa !32
  %33 = getelementptr inbounds nuw i8, ptr %32, i64 48
  %34 = load ptr, ptr %33, align 8
  %35 = invoke noundef signext i8 %34(ptr noundef nonnull align 8 dereferenceable(570) %24, i8 noundef signext 10)
          to label %_ZNKSt9basic_iosIcSt11char_traitsIcEE5widenEc.exit.i unwind label %38

_ZNKSt9basic_iosIcSt11char_traitsIcEE5widenEc.exit.i: ; preds = %.noexc14, %28
  %.0.i.i.i = phi i8 [ %30, %28 ], [ %35, %.noexc14 ]
  %36 = invoke noundef nonnull align 8 dereferenceable(8) ptr @_ZNSo3putEc(ptr noundef nonnull align 8 dereferenceable(8) %6, i8 noundef signext %.0.i.i.i)
          to label %.noexc16 unwind label %38

.noexc16:                                         ; preds = %_ZNKSt9basic_iosIcSt11char_traitsIcEE5widenEc.exit.i
  %37 = invoke noundef nonnull align 8 dereferenceable(8) ptr @_ZNSo5flushEv(ptr noundef nonnull align 8 dereferenceable(8) %36)
          to label %_ZNSolsEPFRSoS_E.exit unwind label %38

38:                                               ; preds = %.noexc16, %_ZNKSt9basic_iosIcSt11char_traitsIcEE5widenEc.exit.i, %.noexc14, %31, %25, %16, %8, %5
  %39 = landingpad { ptr, i32 }
          catch ptr @_ZTISt9exception
  %40 = extractvalue { ptr, i32 } %39, 1
  %41 = tail call i32 @llvm.eh.typeid.for.p0(ptr nonnull @_ZTISt9exception) #28
  %42 = icmp eq i32 %40, %41
  br i1 %42, label %43, label %58

43:                                               ; preds = %38
  %44 = extractvalue { ptr, i32 } %39, 0
  %45 = tail call ptr @__cxa_begin_catch(ptr %44) #28
  %46 = invoke noundef nonnull align 8 dereferenceable(8) ptr @_ZN6casadi4uerrEv()
          to label %47 unwind label %56

47:                                               ; preds = %43
  %48 = invoke noundef nonnull align 8 dereferenceable(8) ptr @_ZSt16__ostream_insertIcSt11char_traitsIcEERSt13basic_ostreamIT_T0_ES6_PKS3_l(ptr noundef nonnull align 8 dereferenceable(8) %46, ptr noundef nonnull @.str.42, i64 noundef 14)
          to label %_ZStlsISt11char_traitsIcEERSt13basic_ostreamIcT_ES5_PKc.exit10 unwind label %56

_ZStlsISt11char_traitsIcEERSt13basic_ostreamIcT_ES5_PKc.exit10: ; preds = %47
  %49 = load ptr, ptr %45, align 8, !tbaa !32
  %50 = getelementptr inbounds nuw i8, ptr %49, i64 16
  %51 = load ptr, ptr %50, align 8
  %52 = tail call noundef ptr %51(ptr noundef nonnull align 8 dereferenceable(8) %45) #28
  %53 = invoke noundef nonnull align 8 dereferenceable(8) ptr @_ZStlsISt11char_traitsIcEERSt13basic_ostreamIcT_ES5_PKc(ptr noundef nonnull align 8 dereferenceable(8) %46, ptr noundef %52)
          to label %54 unwind label %56

54:                                               ; preds = %_ZStlsISt11char_traitsIcEERSt13basic_ostreamIcT_ES5_PKc.exit10
  %55 = invoke noundef nonnull align 8 dereferenceable(8) ptr @_ZSt4endlIcSt11char_traitsIcEERSt13basic_ostreamIT_T0_ES6_(ptr noundef nonnull align 8 dereferenceable(8) %53)
          to label %_ZNSolsEPFRSoS_E.exit12 unwind label %56

_ZNSolsEPFRSoS_E.exit12:                          ; preds = %54
  tail call void @__cxa_end_catch()
  br label %_ZNSolsEPFRSoS_E.exit

_ZNSolsEPFRSoS_E.exit:                            ; preds = %.noexc16, %_ZNSolsEPFRSoS_E.exit12
  ret void

56:                                               ; preds = %54, %47, %_ZStlsISt11char_traitsIcEERSt13basic_ostreamIcT_ES5_PKc.exit10, %43
  %57 = landingpad { ptr, i32 }
          cleanup
  invoke void @__cxa_end_catch()
          to label %58 unwind label %59

58:                                               ; preds = %56, %38
  %.merged = phi { ptr, i32 } [ %39, %38 ], [ %57, %56 ]
  resume { ptr, i32 } %.merged

59:                                               ; preds = %56
  %60 = landingpad { ptr, i32 }
          catch ptr null
  %61 = extractvalue { ptr, i32 } %60, 0
  tail call void @__clang_call_terminate(ptr %61) #31
  unreachable
}